target datalayout = "e-m:e-p270:32:32-p271:32:32-p272:64:64-i64:64-i128:128-f80:128-n8:16:32:64-S128"
target triple = "x86_64-pc-linux-gnu"

%"class.OpenSubdiv::v3_6_0::Vtr::internal::Level" = type { i32, i32, i32, i32, i32, i32, %"class.std::vector", %"class.std::vector", %"class.std::vector", %"class.std::vector.0", %"class.std::vector", %"class.std::vector", %"class.std::vector", %"class.std::vector.5", %"class.std::vector.10", %"class.std::vector.15", %"class.std::vector", %"class.std::vector", %"class.std::vector.5", %"class.std::vector", %"class.std::vector", %"class.std::vector.5", %"class.std::vector.10", %"class.std::vector.20", %"class.std::vector.25" }
%"class.std::vector.0" = type { %"struct.std::_Vector_base.1" }
%"struct.std::_Vector_base.1" = type { %"struct.std::_Vector_base<OpenSubdiv::v3_6_0::Vtr::internal::Level::FTag, std::allocator<OpenSubdiv::v3_6_0::Vtr::internal::Level::FTag>>::_Vector_impl" }
%"struct.std::_Vector_base<OpenSubdiv::v3_6_0::Vtr::internal::Level::FTag, std::allocator<OpenSubdiv::v3_6_0::Vtr::internal::Level::FTag>>::_Vector_impl" = type { %"struct.std::_Vector_base<OpenSubdiv::v3_6_0::Vtr::internal::Level::FTag, std::allocator<OpenSubdiv::v3_6_0::Vtr::internal::Level::FTag>>::_Vector_impl_data" }
%"struct.std::_Vector_base<OpenSubdiv::v3_6_0::Vtr::internal::Level::FTag, std::allocator<OpenSubdiv::v3_6_0::Vtr::internal::Level::FTag>>::_Vector_impl_data" = type { ptr, ptr, ptr }
%"class.std::vector.15" = type { %"struct.std::_Vector_base.16" }
%"struct.std::_Vector_base.16" = type { %"struct.std::_Vector_base<OpenSubdiv::v3_6_0::Vtr::internal::Level::ETag, std::allocator<OpenSubdiv::v3_6_0::Vtr::internal::Level::ETag>>::_Vector_impl" }
%"struct.std::_Vector_base<OpenSubdiv::v3_6_0::Vtr::internal::Level::ETag, std::allocator<OpenSubdiv::v3_6_0::Vtr::internal::Level::ETag>>::_Vector_impl" = type { %"struct.std::_Vector_base<OpenSubdiv::v3_6_0::Vtr::internal::Level::ETag, std::allocator<OpenSubdiv::v3_6_0::Vtr::internal::Level::ETag>>::_Vector_impl_data" }
%"struct.std::_Vector_base<OpenSubdiv::v3_6_0::Vtr::internal::Level::ETag, std::allocator<OpenSubdiv::v3_6_0::Vtr::internal::Level::ETag>>::_Vector_impl_data" = type { ptr, ptr, ptr }
%"class.std::vector" = type { %"struct.std::_Vector_base" }
%"struct.std::_Vector_base" = type { %"struct.std::_Vector_base<int, std::allocator<int>>::_Vector_impl" }
%"struct.std::_Vector_base<int, std::allocator<int>>::_Vector_impl" = type { %"struct.std::_Vector_base<int, std::allocator<int>>::_Vector_impl_data" }
%"struct.std::_Vector_base<int, std::allocator<int>>::_Vector_impl_data" = type { ptr, ptr, ptr }
%"class.std::vector.5" = type { %"struct.std::_Vector_base.6" }
%"struct.std::_Vector_base.6" = type { %"struct.std::_Vector_base<unsigned short, std::allocator<unsigned short>>::_Vector_impl" }
%"struct.std::_Vector_base<unsigned short, std::allocator<unsigned short>>::_Vector_impl" = type { %"struct.std::_Vector_base<unsigned short, std::allocator<unsigned short>>::_Vector_impl_data" }
%"struct.std::_Vector_base<unsigned short, std::allocator<unsigned short>>::_Vector_impl_data" = type { ptr, ptr, ptr }
%"class.std::vector.10" = type { %"struct.std::_Vector_base.11" }
%"struct.std::_Vector_base.11" = type { %"struct.std::_Vector_base<float, std::allocator<float>>::_Vector_impl" }
%"struct.std::_Vector_base<float, std::allocator<float>>::_Vector_impl" = type { %"struct.std::_Vector_base<float, std::allocator<float>>::_Vector_impl_data" }
%"struct.std::_Vector_base<float, std::allocator<float>>::_Vector_impl_data" = type { ptr, ptr, ptr }
%"class.std::vector.20" = type { %"struct.std::_Vector_base.21" }
%"struct.std::_Vector_base.21" = type { %"struct.std::_Vector_base<OpenSubdiv::v3_6_0::Vtr::internal::Level::VTag, std::allocator<OpenSubdiv::v3_6_0::Vtr::internal::Level::VTag>>::_Vector_impl" }
%"struct.std::_Vector_base<OpenSubdiv::v3_6_0::Vtr::internal::Level::VTag, std::allocator<OpenSubdiv::v3_6_0::Vtr::internal::Level::VTag>>::_Vector_impl" = type { %"struct.std::_Vector_base<OpenSubdiv::v3_6_0::Vtr::internal::Level::VTag, std::allocator<OpenSubdiv::v3_6_0::Vtr::internal::Level::VTag>>::_Vector_impl_data" }
%"struct.std::_Vector_base<OpenSubdiv::v3_6_0::Vtr::internal::Level::VTag, std::allocator<OpenSubdiv::v3_6_0::Vtr::internal::Level::VTag>>::_Vector_impl_data" = type { ptr, ptr, ptr }
%"class.std::vector.25" = type { %"struct.std::_Vector_base.26" }
%"struct.std::_Vector_base.26" = type { %"struct.std::_Vector_base<OpenSubdiv::v3_6_0::Vtr::internal::FVarLevel *, std::allocator<OpenSubdiv::v3_6_0::Vtr::internal::FVarLevel *>>::_Vector_impl" }
%"struct.std::_Vector_base<OpenSubdiv::v3_6_0::Vtr::internal::FVarLevel *, std::allocator<OpenSubdiv::v3_6_0::Vtr::internal::FVarLevel *>>::_Vector_impl" = type { %"struct.std::_Vector_base<OpenSubdiv::v3_6_0::Vtr::internal::FVarLevel *, std::allocator<OpenSubdiv::v3_6_0::Vtr::internal::FVarLevel *>>::_Vector_impl_data" }
%"struct.std::_Vector_base<OpenSubdiv::v3_6_0::Vtr::internal::FVarLevel *, std::allocator<OpenSubdiv::v3_6_0::Vtr::internal::FVarLevel *>>::_Vector_impl_data" = type { ptr, ptr, ptr }
%"class.OpenSubdiv::v3_6_0::Vtr::ConstArray" = type <{ ptr, i32, [4 x i8] }>

; Function Attrs: mustprogress uwtable
define linkonce_odr { ptr, i32 } @_ZNK10OpenSubdiv6v3_6_03Vtr8internal5Level15getEdgeVerticesEi(ptr noundef nonnull align 8 dereferenceable(480) %0, i32 noundef %1) #3 comdat align 2 {
  %3 = alloca %"class.OpenSubdiv::v3_6_0::Vtr::ConstArray", align 8
  %4 = alloca ptr, align 8
  %5 = alloca i32, align 4
  store ptr %0, ptr %4, align 8
  store i32 %1, ptr %5, align 4
  %6 = load ptr, ptr %4, align 8
  %7 = getelementptr inbounds nuw %"class.OpenSubdiv::v3_6_0::Vtr::internal::Level", ptr %6, i32 0, i32 10
  %8 = load i32, ptr %5, align 4
  %9 = mul nsw i32 %8, 2
  %10 = sext i32 %9 to i64
  %11 = call noundef nonnull align 4 dereferenceable(4) ptr @_ZNKSt6vectorIiSaIiEEixEm(ptr noundef nonnull align 8 dereferenceable(24) %7, i64 noundef %10) #12
  call void @_ZN10OpenSubdiv6v3_6_03Vtr10ConstArrayIiEC2EPKii(ptr noundef nonnull align 8 dereferenceable(12) %3, ptr noundef %11, i32 noundef 2)
  %12 = load { ptr, i32 }, ptr %3, align 8
  ret { ptr, i32 } %12
}

; Function Attrs: mustprogress nounwind uwtable
define linkonce_odr noundef nonnull align 4 dereferenceable(4) ptr @_ZNK10OpenSubdiv6v3_6_03Vtr10ConstArrayIiEixEi(ptr noundef nonnull align 8 dereferenceable(12) %0, i32 noundef %1) #0 comdat align 2 {
  %3 = alloca ptr, align 8
  %4 = alloca i32, align 4
  store ptr %0, ptr %3, align 8
  store i32 %1, ptr %4, align 4
  %5 = load ptr, ptr %3, align 8
  %6 = getelementptr inbounds nuw %"class.OpenSubdiv::v3_6_0::Vtr::ConstArray", ptr %5, i32 0, i32 0
  %7 = load ptr, ptr %6, align 8
  %8 = load i32, ptr %4, align 4
  %9 = sext i32 %8 to i64
  %10 = getelementptr inbounds i32, ptr %7, i64 %9
  ret ptr %10
}

; Function Attrs: mustprogress nounwind uwtable
define linkonce_odr noundef i32 @_ZNK10OpenSubdiv6v3_6_03Vtr10ConstArrayIiE4sizeEv(ptr noundef nonnull align 8 dereferenceable(12) %0) #0 comdat align 2 {
  %2 = alloca ptr, align 8
  store ptr %0, ptr %2, align 8
  %3 = load ptr, ptr %2, align 8
  %4 = getelementptr inbounds nuw %"class.OpenSubdiv::v3_6_0::Vtr::ConstArray", ptr %3, i32 0, i32 1
  %5 = load i32, ptr %4, align 8
  ret i32 %5
}

; Function Attrs: mustprogress nounwind uwtable
define linkonce_odr void @_ZN10OpenSubdiv6v3_6_03Vtr10ConstArrayIiEC2EPKii(ptr noundef nonnull align 8 dereferenceable(12) %0, ptr noundef %1, i32 noundef %2) unnamed_addr #0 comdat align 2 {
  %4 = alloca ptr, align 8
  %5 = alloca ptr, align 8
  %6 = alloca i32, align 4
  store ptr %0, ptr %4, align 8
  store ptr %1, ptr %5, align 8
  store i32 %2, ptr %6, align 4
  %7 = load ptr, ptr %4, align 8
  %8 = getelementptr inbounds nuw %"class.OpenSubdiv::v3_6_0::Vtr::ConstArray", ptr %7, i32 0, i32 0
  %9 = load ptr, ptr %5, align 8
  store ptr %9, ptr %8, align 8
  %10 = getelementptr inbounds nuw %"class.OpenSubdiv::v3_6_0::Vtr::ConstArray", ptr %7, i32 0, i32 1
  %11 = load i32, ptr %6, align 4
  store i32 %11, ptr %10, align 8
  ret void
}

; Function Attrs: mustprogress nounwind uwtable
define linkonce_odr noundef nonnull align 4 dereferenceable(4) ptr @_ZNKSt6vectorIiSaIiEEixEm(ptr noundef nonnull align 8 dereferenceable(24) %0, i64 noundef %1) #0 comdat align 2 {
  %3 = alloca ptr, align 8
  %4 = alloca i64, align 8
  store ptr %0, ptr %3, align 8
  store i64 %1, ptr %4, align 8
  %5 = load ptr, ptr %3, align 8
  %6 = getelementptr inbounds nuw %"struct.std::_Vector_base", ptr %5, i32 0, i32 0
  %7 = getelementptr inbounds nuw %"struct.std::_Vector_base<int, std::allocator<int>>::_Vector_impl_data", ptr %6, i32 0, i32 0
  %8 = load ptr, ptr %7, align 8
  %9 = load i64, ptr %4, align 8
  %10 = getelementptr inbounds i32, ptr %8, i64 %9
  ret ptr %10
}

; Function Attrs: mustprogress uwtable
define linkonce_odr noundef i32 @_ZNK10OpenSubdiv6v3_6_03Vtr8internal5Level8findEdgeEiiNS1_10ConstArrayIiEE(ptr noundef nonnull align 8 dereferenceable(480) %0, i32 noundef %1, i32 noundef %2, ptr %3, i32 %4) #3 comdat align 2 {
  %6 = alloca i32, align 4
  %7 = alloca %"class.OpenSubdiv::v3_6_0::Vtr::ConstArray", align 8
  %8 = alloca ptr, align 8
  %9 = alloca i32, align 4
  %10 = alloca i32, align 4
  %11 = alloca i32, align 4
  %12 = alloca %"class.OpenSubdiv::v3_6_0::Vtr::ConstArray", align 8
  %13 = alloca { ptr, i32 }, align 8
  %14 = alloca i32, align 4
  %15 = alloca %"class.OpenSubdiv::v3_6_0::Vtr::ConstArray", align 8
  %16 = alloca { ptr, i32 }, align 8
  %17 = getelementptr inbounds nuw { ptr, i32 }, ptr %7, i32 0, i32 0
  store ptr %3, ptr %17, align 8
  %18 = getelementptr inbounds nuw { ptr, i32 }, ptr %7, i32 0, i32 1
  store i32 %4, ptr %18, align 8
  store ptr %0, ptr %8, align 8
  store i32 %1, ptr %9, align 4
  store i32 %2, ptr %10, align 4
  %19 = load ptr, ptr %8, align 8
  %20 = load i32, ptr %9, align 4
  %21 = load i32, ptr %10, align 4
  %22 = icmp ne i32 %20, %21
  br i1 %22, label %23, label %51

23:                                               ; preds = %5
  store i32 0, ptr %11, align 4
  br label %24

24:                                               ; preds = %47, %23
  %25 = load i32, ptr %11, align 4
  %26 = call noundef i32 @_ZNK10OpenSubdiv6v3_6_03Vtr10ConstArrayIiE4sizeEv(ptr noundef nonnull align 8 dereferenceable(12) %7)
  %27 = icmp slt i32 %25, %26
  br i1 %27, label %28, label %50

28:                                               ; preds = %24
  %29 = load i32, ptr %11, align 4
  %30 = call noundef nonnull align 4 dereferenceable(4) ptr @_ZNK10OpenSubdiv6v3_6_03Vtr10ConstArrayIiEixEi(ptr noundef nonnull align 8 dereferenceable(12) %7, i32 noundef %29)
  %31 = load i32, ptr %30, align 4
  %32 = call { ptr, i32 } @_ZNK10OpenSubdiv6v3_6_03Vtr8internal5Level15getEdgeVerticesEi(ptr noundef nonnull align 8 dereferenceable(480) %19, i32 noundef %31)
  store { ptr, i32 } %32, ptr %13, align 8
  call void @llvm.memcpy.p0.p0.i64(ptr align 8 %12, ptr align 8 %13, i64 12, i1 false)
  %33 = call noundef nonnull align 4 dereferenceable(4) ptr @_ZNK10OpenSubdiv6v3_6_03Vtr10ConstArrayIiEixEi(ptr noundef nonnull align 8 dereferenceable(12) %12, i32 noundef 0)
  %34 = load i32, ptr %33, align 4
  %35 = load i32, ptr %10, align 4
  %36 = icmp eq i32 %34, %35
  br i1 %36, label %42, label %37

37:                                               ; preds = %28
  %38 = call noundef nonnull align 4 dereferenceable(4) ptr @_ZNK10OpenSubdiv6v3_6_03Vtr10ConstArrayIiEixEi(ptr noundef nonnull align 8 dereferenceable(12) %12, i32 noundef 1)
  %39 = load i32, ptr %38, align 4
  %40 = load i32, ptr %10, align 4
  %41 = icmp eq i32 %39, %40
  br i1 %41, label %42, label %46

42:                                               ; preds = %37, %28
  %43 = load i32, ptr %11, align 4
  %44 = call noundef nonnull align 4 dereferenceable(4) ptr @_ZNK10OpenSubdiv6v3_6_03Vtr10ConstArrayIiEixEi(ptr noundef nonnull align 8 dereferenceable(12) %7, i32 noundef %43)
  %45 = load i32, ptr %44, align 4
  store i32 %45, ptr %6, align 4
  br label %76

46:                                               ; preds = %37
  br label %47

47:                                               ; preds = %46
  %48 = load i32, ptr %11, align 4
  %49 = add nsw i32 %48, 1
  store i32 %49, ptr %11, align 4
  br label %24, !llvm.loop !58

50:                                               ; preds = %24
  br label %75

51:                                               ; preds = %5
  store i32 0, ptr %14, align 4
  br label %52

52:                                               ; preds = %71, %51
  %53 = load i32, ptr %14, align 4
  %54 = call noundef i32 @_ZNK10OpenSubdiv6v3_6_03Vtr10ConstArrayIiE4sizeEv(ptr noundef nonnull align 8 dereferenceable(12) %7)
  %55 = icmp slt i32 %53, %54
  br i1 %55, label %56, label %74

56:                                               ; preds = %52
  %57 = load i32, ptr %14, align 4
  %58 = call noundef nonnull align 4 dereferenceable(4) ptr @_ZNK10OpenSubdiv6v3_6_03Vtr10ConstArrayIiEixEi(ptr noundef nonnull align 8 dereferenceable(12) %7, i32 noundef %57)
  %59 = load i32, ptr %58, align 4
  %60 = call { ptr, i32 } @_ZNK10OpenSubdiv6v3_6_03Vtr8internal5Level15getEdgeVerticesEi(ptr noundef nonnull align 8 dereferenceable(480) %19, i32 noundef %59)
  store { ptr, i32 } %60, ptr %16, align 8
  call void @llvm.memcpy.p0.p0.i64(ptr align 8 %15, ptr align 8 %16, i64 12, i1 false)
  %61 = call noundef nonnull align 4 dereferenceable(4) ptr @_ZNK10OpenSubdiv6v3_6_03Vtr10ConstArrayIiEixEi(ptr noundef nonnull align 8 dereferenceable(12) %15, i32 noundef 0)
  %62 = load i32, ptr %61, align 4
  %63 = call noundef nonnull align 4 dereferenceable(4) ptr @_ZNK10OpenSubdiv6v3_6_03Vtr10ConstArrayIiEixEi(ptr noundef nonnull align 8 dereferenceable(12) %15, i32 noundef 1)
  %64 = load i32, ptr %63, align 4
  %65 = icmp eq i32 %62, %64
  br i1 %65, label %66, label %70

66:                                               ; preds = %56
  %67 = load i32, ptr %14, align 4
  %68 = call noundef nonnull align 4 dereferenceable(4) ptr @_ZNK10OpenSubdiv6v3_6_03Vtr10ConstArrayIiEixEi(ptr noundef nonnull align 8 dereferenceable(12) %7, i32 noundef %67)
  %69 = load i32, ptr %68, align 4
  store i32 %69, ptr %6, align 4
  br label %76

70:                                               ; preds = %56
  br label %71

71:                                               ; preds = %70
  %72 = load i32, ptr %14, align 4
  %73 = add nsw i32 %72, 1
  store i32 %73, ptr %14, align 4
  br label %52, !llvm.loop !59

74:                                               ; preds = %52
  br label %75

75:                                               ; preds = %74, %50
  store i32 -1, ptr %6, align 4
  br label %76

76:                                               ; preds = %75, %66, %42
  %77 = load i32, ptr %6, align 4
  ret i32 %77
}

; Function Attrs: mustprogress uwtable
define linkonce_odr { ptr, i32 } @_ZNK10OpenSubdiv6v3_6_03Vtr8internal5Level14getVertexEdgesEi(ptr noundef nonnull align 8 dereferenceable(480) %0, i32 noundef %1) #3 comdat align 2 {
  %3 = alloca %"class.OpenSubdiv::v3_6_0::Vtr::ConstArray", align 8
  %4 = alloca ptr, align 8
  %5 = alloca i32, align 4
  store ptr %0, ptr %4, align 8
  store i32 %1, ptr %5, align 4
  %6 = load ptr, ptr %4, align 8
  %7 = getelementptr inbounds nuw %"class.OpenSubdiv::v3_6_0::Vtr::internal::Level", ptr %6, i32 0, i32 20
  %8 = call noundef nonnull align 4 dereferenceable(4) ptr @_ZNKSt6vectorIiSaIiEEixEm(ptr noundef nonnull align 8 dereferenceable(24) %7, i64 noundef 0) #12
  %9 = getelementptr inbounds nuw %"class.OpenSubdiv::v3_6_0::Vtr::internal::Level", ptr %6, i32 0, i32 19
  %10 = load i32, ptr %5, align 4
  %11 = mul nsw i32 %10, 2
  %12 = add nsw i32 %11, 1
  %13 = sext i32 %12 to i64
  %14 = call noundef nonnull align 4 dereferenceable(4) ptr @_ZNKSt6vectorIiSaIiEEixEm(ptr noundef nonnull align 8 dereferenceable(24) %9, i64 noundef %13) #12
  %15 = load i32, ptr %14, align 4
  %16 = sext i32 %15 to i64
  %17 = getelementptr inbounds i32, ptr %8, i64 %16
  %18 = getelementptr inbounds nuw %"class.OpenSubdiv::v3_6_0::Vtr::internal::Level", ptr %6, i32 0, i32 19
  %19 = load i32, ptr %5, align 4
  %20 = mul nsw i32 %19, 2
  %21 = sext i32 %20 to i64
  %22 = call noundef nonnull align 4 dereferenceable(4) ptr @_ZNKSt6vectorIiSaIiEEixEm(ptr noundef nonnull align 8 dereferenceable(24) %18, i64 noundef %21) #12
  %23 = load i32, ptr %22, align 4
  call void @_ZN10OpenSubdiv6v3_6_03Vtr10ConstArrayIiEC2EPKii(ptr noundef nonnull align 8 dereferenceable(12) %3, ptr noundef %17, i32 noundef %23)
  %24 = load { ptr, i32 }, ptr %3, align 8
  ret { ptr, i32 } %24
}

; Function Attrs: mustprogress uwtable
define noundef i32 @_ZNK10OpenSubdiv6v3_6_03Vtr8internal5Level8findEdgeEii(ptr noundef nonnull align 8 dereferenceable(480) %0, i32 noundef %1, i32 noundef %2) #3 align 2 {
  %4 = alloca ptr, align 8
  %5 = alloca i32, align 4
  %6 = alloca i32, align 4
  %7 = alloca %"class.OpenSubdiv::v3_6_0::Vtr::ConstArray", align 8
  %8 = alloca { ptr, i32 }, align 8
  store ptr %0, ptr %4, align 8
  store i32 %1, ptr %5, align 4
  store i32 %2, ptr %6, align 4
  %9 = load ptr, ptr %4, align 8
  %10 = load i32, ptr %5, align 4
  %11 = load i32, ptr %6, align 4
  %12 = load i32, ptr %5, align 4
  %13 = call { ptr, i32 } @_ZNK10OpenSubdiv6v3_6_03Vtr8internal5Level14getVertexEdgesEi(ptr noundef nonnull align 8 dereferenceable(480) %9, i32 noundef %12)
  store { ptr, i32 } %13, ptr %8, align 8
  call void @llvm.memcpy.p0.p0.i64(ptr align 8 %7, ptr align 8 %8, i64 12, i1 false)
  %14 = getelementptr inbounds nuw { ptr, i32 }, ptr %7, i32 0, i32 0
  %15 = load ptr, ptr %14, align 8
  %16 = getelementptr inbounds nuw { ptr, i32 }, ptr %7, i32 0, i32 1
  %17 = load i32, ptr %16, align 8
  %18 = call noundef i32 @_ZNK10OpenSubdiv6v3_6_03Vtr8internal5Level8findEdgeEiiNS1_10ConstArrayIiEE(ptr noundef nonnull align 8 dereferenceable(480) %9, i32 noundef %10, i32 noundef %11, ptr %15, i32 %17)
  ret i32 %18
}