; Function Attrs: mustprogress nofree norecurse nosync nounwind willreturn memory(read, inaccessiblemem: none) uwtable
define noundef i32 @_ZNK10OpenSubdiv6v3_6_03Vtr8internal5Level8findEdgeEii(ptr noundef nonnull readonly align 8 captures(none) dereferenceable(480) %0, i32 noundef %1, i32 noundef %2) local_unnamed_addr #13 align 2 {
  %4 = getelementptr inbounds nuw i8, ptr %0, i64 360
  %5 = load ptr, ptr %4, align 8
  %6 = getelementptr inbounds nuw i8, ptr %0, i64 336
  %7 = shl nsw i32 %1, 1
  %8 = or disjoint i32 %7, 1
  %9 = sext i32 %8 to i64
  %10 = load ptr, ptr %6, align 8
  %11 = getelementptr inbounds i32, ptr %10, i64 %9
  %12 = load i32, ptr %11, align 4
  %13 = sext i32 %12 to i64
  %14 = getelementptr inbounds i32, ptr %5, i64 %13
  %15 = sext i32 %7 to i64
  %16 = getelementptr inbounds i32, ptr %10, i64 %15
  %17 = load i32, ptr %16, align 4
  %.not.i = icmp eq i32 %1, %2
  %18 = icmp sgt i32 %17, 0
  br i1 %.not.i, label %.preheader.i, label %.preheader31.i

.preheader31.i:                                   ; preds = %3
  br i1 %18, label %.lr.ph.i, label %_ZNK10OpenSubdiv6v3_6_03Vtr8internal5Level8findEdgeEiiNS1_10ConstArrayIiEE.exit

.lr.ph.i:                                         ; preds = %.preheader31.i
  %19 = getelementptr inbounds nuw i8, ptr %0, i64 120
  %20 = load ptr, ptr %19, align 8
  %wide.trip.count.i = zext nneg i32 %17 to i64
  br label %24

.preheader.i:                                     ; preds = %3
  br i1 %18, label %.lr.ph40.i, label %_ZNK10OpenSubdiv6v3_6_03Vtr8internal5Level8findEdgeEiiNS1_10ConstArrayIiEE.exit

.lr.ph40.i:                                       ; preds = %.preheader.i
  %21 = getelementptr inbounds nuw i8, ptr %0, i64 120
  %22 = load ptr, ptr %21, align 8
  %wide.trip.count50.i = zext nneg i32 %17 to i64
  br label %37

23:                                               ; preds = %32
  %indvars.iv.next.i = add nuw nsw i64 %indvars.iv.i, 1
  %exitcond.not.i = icmp eq i64 %indvars.iv.next.i, %wide.trip.count.i
  br i1 %exitcond.not.i, label %_ZNK10OpenSubdiv6v3_6_03Vtr8internal5Level8findEdgeEiiNS1_10ConstArrayIiEE.exit, label %24, !llvm.loop !53

24:                                               ; preds = %23, %.lr.ph.i
  %indvars.iv.i = phi i64 [ 0, %.lr.ph.i ], [ %indvars.iv.next.i, %23 ]
  %25 = getelementptr inbounds nuw i32, ptr %14, i64 %indvars.iv.i
  %26 = load i32, ptr %25, align 4
  %27 = shl nsw i32 %26, 1
  %28 = sext i32 %27 to i64
  %29 = getelementptr inbounds i32, ptr %20, i64 %28
  %30 = load i32, ptr %29, align 4
  %31 = icmp eq i32 %30, %2
  br i1 %31, label %_ZNK10OpenSubdiv6v3_6_03Vtr8internal5Level8findEdgeEiiNS1_10ConstArrayIiEE.exit, label %32

32:                                               ; preds = %24
  %33 = getelementptr inbounds nuw i8, ptr %29, i64 4
  %34 = load i32, ptr %33, align 4
  %35 = icmp eq i32 %34, %2
  br i1 %35, label %_ZNK10OpenSubdiv6v3_6_03Vtr8internal5Level8findEdgeEiiNS1_10ConstArrayIiEE.exit, label %23

36:                                               ; preds = %37
  %indvars.iv.next48.i = add nuw nsw i64 %indvars.iv47.i, 1
  %exitcond51.not.i = icmp eq i64 %indvars.iv.next48.i, %wide.trip.count50.i
  br i1 %exitcond51.not.i, label %_ZNK10OpenSubdiv6v3_6_03Vtr8internal5Level8findEdgeEiiNS1_10ConstArrayIiEE.exit, label %37, !llvm.loop !54

37:                                               ; preds = %36, %.lr.ph40.i
  %indvars.iv47.i = phi i64 [ 0, %.lr.ph40.i ], [ %indvars.iv.next48.i, %36 ]
  %38 = getelementptr inbounds nuw i32, ptr %14, i64 %indvars.iv47.i
  %39 = load i32, ptr %38, align 4
  %40 = shl nsw i32 %39, 1
  %41 = sext i32 %40 to i64
  %42 = getelementptr inbounds i32, ptr %22, i64 %41
  %43 = load i32, ptr %42, align 4
  %44 = getelementptr inbounds nuw i8, ptr %42, i64 4
  %45 = load i32, ptr %44, align 4
  %46 = icmp eq i32 %43, %45
  br i1 %46, label %_ZNK10OpenSubdiv6v3_6_03Vtr8internal5Level8findEdgeEiiNS1_10ConstArrayIiEE.exit, label %36

_ZNK10OpenSubdiv6v3_6_03Vtr8internal5Level8findEdgeEiiNS1_10ConstArrayIiEE.exit: ; preds = %23, %24, %32, %36, %37, %.preheader31.i, %.preheader.i
  %.0.i = phi i32 [ -1, %.preheader.i ], [ -1, %.preheader31.i ], [ %39, %37 ], [ -1, %36 ], [ %26, %24 ], [ %26, %32 ], [ -1, %23 ]
  ret i32 %.0.i
}